target datalayout = "e-m:e-p270:32:32-p271:32:32-p272:64:64-i64:64-i128:128-f80:128-n8:16:32:64-S128"
target triple = "x86_64-pc-linux-gnu"

%struct.XXH32_state_s = type { i32, i32, [4 x i32], [4 x i32], i32, i32 }

; Function Attrs: mustprogress nounwind uwtable
define internal noundef i32 @_ZL10XXH_read32PKv(ptr noundef %0) #4 {
  %2 = alloca ptr, align 8
  store ptr %0, ptr %2, align 8, !tbaa !4
  %3 = load ptr, ptr %2, align 8, !tbaa !4
  %4 = load i32, ptr %3, align 1, !tbaa !10
  ret i32 %4
}

; Function Attrs: mustprogress nounwind uwtable
define internal noundef i32 @_ZL11XXH32_roundjj(i32 noundef %0, i32 noundef %1) #4 {
  %3 = alloca i32, align 4
  %4 = alloca i32, align 4
  store i32 %0, ptr %3, align 4, !tbaa !10
  store i32 %1, ptr %4, align 4, !tbaa !10
  %5 = load i32, ptr %4, align 4, !tbaa !10
  %6 = mul i32 %5, -2048144777
  %7 = load i32, ptr %3, align 4, !tbaa !10
  %8 = add i32 %7, %6
  store i32 %8, ptr %3, align 4, !tbaa !10
  %9 = load i32, ptr %3, align 4, !tbaa !10
  %10 = call i32 @llvm.fshl.i32(i32 %9, i32 %9, i32 13)
  store i32 %10, ptr %3, align 4, !tbaa !10
  %11 = load i32, ptr %3, align 4, !tbaa !10
  %12 = mul i32 %11, -1640531535
  store i32 %12, ptr %3, align 4, !tbaa !10
  %13 = load i32, ptr %3, align 4, !tbaa !10
  %14 = call i32 asm sideeffect "", "=r,0,~{dirflag},~{fpsr},~{flags}"(i32 %13) #22, !srcloc !27
  store i32 %14, ptr %3, align 4, !tbaa !10
  %15 = load i32, ptr %3, align 4, !tbaa !10
  ret i32 %15
}

; Function Attrs: alwaysinline mustprogress uwtable
define internal noundef i32 @_ZL12XXH_readLE32PKv(ptr noundef %0) #7 {
  %2 = alloca ptr, align 8
  store ptr %0, ptr %2, align 8, !tbaa !4
  %3 = load ptr, ptr %2, align 8, !tbaa !4
  %4 = call noundef i32 @_ZL10XXH_read32PKv(ptr noundef %3)
  ret i32 %4
}

; Function Attrs: mustprogress nounwind uwtable
define internal noundef ptr @_ZL10XXH_memcpyPvPKvm(ptr noundef %0, ptr noundef %1, i64 noundef %2) #4 {
  %4 = alloca ptr, align 8
  %5 = alloca ptr, align 8
  %6 = alloca i64, align 8
  store ptr %0, ptr %4, align 8, !tbaa !4
  store ptr %1, ptr %5, align 8, !tbaa !4
  store i64 %2, ptr %6, align 8, !tbaa !8
  %7 = load ptr, ptr %4, align 8, !tbaa !4
  %8 = load ptr, ptr %5, align 8, !tbaa !4
  %9 = load i64, ptr %6, align 8, !tbaa !8
  call void @llvm.memcpy.p0.p0.i64(ptr align 1 %7, ptr align 1 %8, i64 %9, i1 false)
  ret ptr %7
}

; Function Attrs: mustprogress uwtable
define i32 @ROCKSDB_XXH32_update(ptr noundef %0, ptr noundef %1, i64 noundef %2) #3 {
  %4 = alloca i32, align 4
  %5 = alloca ptr, align 8
  %6 = alloca ptr, align 8
  %7 = alloca i64, align 8
  %8 = alloca ptr, align 8
  %9 = alloca ptr, align 8
  %10 = alloca i32, align 4
  %11 = alloca ptr, align 8
  %12 = alloca ptr, align 8
  store ptr %0, ptr %5, align 8, !tbaa !18
  store ptr %1, ptr %6, align 8, !tbaa !4
  store i64 %2, ptr %7, align 8, !tbaa !8
  %13 = load ptr, ptr %6, align 8, !tbaa !4
  %14 = icmp eq ptr %13, null
  br i1 %14, label %15, label %20

15:                                               ; preds = %3
  %16 = load i64, ptr %7, align 8, !tbaa !8
  %17 = icmp eq i64 %16, 0
  br i1 %17, label %19, label %18

18:                                               ; preds = %15
  unreachable

19:                                               ; preds = %15
  store i32 0, ptr %4, align 4
  br label %237

20:                                               ; preds = %3
  call void @llvm.lifetime.start.p0(i64 8, ptr %8) #22
  %21 = load ptr, ptr %6, align 8, !tbaa !4
  store ptr %21, ptr %8, align 8, !tbaa !12
  call void @llvm.lifetime.start.p0(i64 8, ptr %9) #22
  %22 = load ptr, ptr %8, align 8, !tbaa !12
  %23 = load i64, ptr %7, align 8, !tbaa !8
  %24 = getelementptr inbounds nuw i8, ptr %22, i64 %23
  store ptr %24, ptr %9, align 8, !tbaa !12
  %25 = load i64, ptr %7, align 8, !tbaa !8
  %26 = trunc i64 %25 to i32
  %27 = load ptr, ptr %5, align 8, !tbaa !18
  %28 = getelementptr inbounds nuw %struct.XXH32_state_s, ptr %27, i32 0, i32 0
  %29 = load i32, ptr %28, align 4, !tbaa !20
  %30 = add i32 %29, %26
  store i32 %30, ptr %28, align 4, !tbaa !20
  %31 = load i64, ptr %7, align 8, !tbaa !8
  %32 = icmp uge i64 %31, 16
  %33 = zext i1 %32 to i32
  %34 = load ptr, ptr %5, align 8, !tbaa !18
  %35 = getelementptr inbounds nuw %struct.XXH32_state_s, ptr %34, i32 0, i32 0
  %36 = load i32, ptr %35, align 4, !tbaa !20
  %37 = icmp uge i32 %36, 16
  %38 = zext i1 %37 to i32
  %39 = or i32 %33, %38
  %40 = load ptr, ptr %5, align 8, !tbaa !18
  %41 = getelementptr inbounds nuw %struct.XXH32_state_s, ptr %40, i32 0, i32 1
  %42 = load i32, ptr %41, align 4, !tbaa !22
  %43 = or i32 %42, %39
  store i32 %43, ptr %41, align 4, !tbaa !22
  %44 = load ptr, ptr %5, align 8, !tbaa !18
  %45 = getelementptr inbounds nuw %struct.XXH32_state_s, ptr %44, i32 0, i32 4
  %46 = load i32, ptr %45, align 4, !tbaa !23
  %47 = zext i32 %46 to i64
  %48 = load i64, ptr %7, align 8, !tbaa !8
  %49 = add i64 %47, %48
  %50 = icmp ult i64 %49, 16
  br i1 %50, label %51, label %69

51:                                               ; preds = %20
  %52 = load ptr, ptr %5, align 8, !tbaa !18
  %53 = getelementptr inbounds nuw %struct.XXH32_state_s, ptr %52, i32 0, i32 3
  %54 = getelementptr inbounds [4 x i32], ptr %53, i64 0, i64 0
  %55 = load ptr, ptr %5, align 8, !tbaa !18
  %56 = getelementptr inbounds nuw %struct.XXH32_state_s, ptr %55, i32 0, i32 4
  %57 = load i32, ptr %56, align 4, !tbaa !23
  %58 = zext i32 %57 to i64
  %59 = getelementptr inbounds nuw i8, ptr %54, i64 %58
  %60 = load ptr, ptr %6, align 8, !tbaa !4
  %61 = load i64, ptr %7, align 8, !tbaa !8
  %62 = call noundef ptr @_ZL10XXH_memcpyPvPKvm(ptr noundef %59, ptr noundef %60, i64 noundef %61)
  %63 = load i64, ptr %7, align 8, !tbaa !8
  %64 = trunc i64 %63 to i32
  %65 = load ptr, ptr %5, align 8, !tbaa !18
  %66 = getelementptr inbounds nuw %struct.XXH32_state_s, ptr %65, i32 0, i32 4
  %67 = load i32, ptr %66, align 4, !tbaa !23
  %68 = add i32 %67, %64
  store i32 %68, ptr %66, align 4, !tbaa !23
  store i32 0, ptr %4, align 4
  store i32 1, ptr %10, align 4
  br label %234

69:                                               ; preds = %20
  %70 = load ptr, ptr %5, align 8, !tbaa !18
  %71 = getelementptr inbounds nuw %struct.XXH32_state_s, ptr %70, i32 0, i32 4
  %72 = load i32, ptr %71, align 4, !tbaa !23
  %73 = icmp ne i32 %72, 0
  br i1 %73, label %74, label %148

74:                                               ; preds = %69
  %75 = load ptr, ptr %5, align 8, !tbaa !18
  %76 = getelementptr inbounds nuw %struct.XXH32_state_s, ptr %75, i32 0, i32 3
  %77 = getelementptr inbounds [4 x i32], ptr %76, i64 0, i64 0
  %78 = load ptr, ptr %5, align 8, !tbaa !18
  %79 = getelementptr inbounds nuw %struct.XXH32_state_s, ptr %78, i32 0, i32 4
  %80 = load i32, ptr %79, align 4, !tbaa !23
  %81 = zext i32 %80 to i64
  %82 = getelementptr inbounds nuw i8, ptr %77, i64 %81
  %83 = load ptr, ptr %6, align 8, !tbaa !4
  %84 = load ptr, ptr %5, align 8, !tbaa !18
  %85 = getelementptr inbounds nuw %struct.XXH32_state_s, ptr %84, i32 0, i32 4
  %86 = load i32, ptr %85, align 4, !tbaa !23
  %87 = sub i32 16, %86
  %88 = zext i32 %87 to i64
  %89 = call noundef ptr @_ZL10XXH_memcpyPvPKvm(ptr noundef %82, ptr noundef %83, i64 noundef %88)
  call void @llvm.lifetime.start.p0(i64 8, ptr %11) #22
  %90 = load ptr, ptr %5, align 8, !tbaa !18
  %91 = getelementptr inbounds nuw %struct.XXH32_state_s, ptr %90, i32 0, i32 3
  %92 = getelementptr inbounds [4 x i32], ptr %91, i64 0, i64 0
  store ptr %92, ptr %11, align 8, !tbaa !24
  %93 = load ptr, ptr %5, align 8, !tbaa !18
  %94 = getelementptr inbounds nuw %struct.XXH32_state_s, ptr %93, i32 0, i32 2
  %95 = getelementptr inbounds [4 x i32], ptr %94, i64 0, i64 0
  %96 = load i32, ptr %95, align 4, !tbaa !10
  %97 = load ptr, ptr %11, align 8, !tbaa !24
  %98 = call noundef i32 @_ZL12XXH_readLE32PKv(ptr noundef %97)
  %99 = call noundef i32 @_ZL11XXH32_roundjj(i32 noundef %96, i32 noundef %98)
  %100 = load ptr, ptr %5, align 8, !tbaa !18
  %101 = getelementptr inbounds nuw %struct.XXH32_state_s, ptr %100, i32 0, i32 2
  %102 = getelementptr inbounds [4 x i32], ptr %101, i64 0, i64 0
  store i32 %99, ptr %102, align 4, !tbaa !10
  %103 = load ptr, ptr %11, align 8, !tbaa !24
  %104 = getelementptr inbounds nuw i32, ptr %103, i32 1
  store ptr %104, ptr %11, align 8, !tbaa !24
  %105 = load ptr, ptr %5, align 8, !tbaa !18
  %106 = getelementptr inbounds nuw %struct.XXH32_state_s, ptr %105, i32 0, i32 2
  %107 = getelementptr inbounds [4 x i32], ptr %106, i64 0, i64 1
  %108 = load i32, ptr %107, align 4, !tbaa !10
  %109 = load ptr, ptr %11, align 8, !tbaa !24
  %110 = call noundef i32 @_ZL12XXH_readLE32PKv(ptr noundef %109)
  %111 = call noundef i32 @_ZL11XXH32_roundjj(i32 noundef %108, i32 noundef %110)
  %112 = load ptr, ptr %5, align 8, !tbaa !18
  %113 = getelementptr inbounds nuw %struct.XXH32_state_s, ptr %112, i32 0, i32 2
  %114 = getelementptr inbounds [4 x i32], ptr %113, i64 0, i64 1
  store i32 %111, ptr %114, align 4, !tbaa !10
  %115 = load ptr, ptr %11, align 8, !tbaa !24
  %116 = getelementptr inbounds nuw i32, ptr %115, i32 1
  store ptr %116, ptr %11, align 8, !tbaa !24
  %117 = load ptr, ptr %5, align 8, !tbaa !18
  %118 = getelementptr inbounds nuw %struct.XXH32_state_s, ptr %117, i32 0, i32 2
  %119 = getelementptr inbounds [4 x i32], ptr %118, i64 0, i64 2
  %120 = load i32, ptr %119, align 4, !tbaa !10
  %121 = load ptr, ptr %11, align 8, !tbaa !24
  %122 = call noundef i32 @_ZL12XXH_readLE32PKv(ptr noundef %121)
  %123 = call noundef i32 @_ZL11XXH32_roundjj(i32 noundef %120, i32 noundef %122)
  %124 = load ptr, ptr %5, align 8, !tbaa !18
  %125 = getelementptr inbounds nuw %struct.XXH32_state_s, ptr %124, i32 0, i32 2
  %126 = getelementptr inbounds [4 x i32], ptr %125, i64 0, i64 2
  store i32 %123, ptr %126, align 4, !tbaa !10
  %127 = load ptr, ptr %11, align 8, !tbaa !24
  %128 = getelementptr inbounds nuw i32, ptr %127, i32 1
  store ptr %128, ptr %11, align 8, !tbaa !24
  %129 = load ptr, ptr %5, align 8, !tbaa !18
  %130 = getelementptr inbounds nuw %struct.XXH32_state_s, ptr %129, i32 0, i32 2
  %131 = getelementptr inbounds [4 x i32], ptr %130, i64 0, i64 3
  %132 = load i32, ptr %131, align 4, !tbaa !10
  %133 = load ptr, ptr %11, align 8, !tbaa !24
  %134 = call noundef i32 @_ZL12XXH_readLE32PKv(ptr noundef %133)
  %135 = call noundef i32 @_ZL11XXH32_roundjj(i32 noundef %132, i32 noundef %134)
  %136 = load ptr, ptr %5, align 8, !tbaa !18
  %137 = getelementptr inbounds nuw %struct.XXH32_state_s, ptr %136, i32 0, i32 2
  %138 = getelementptr inbounds [4 x i32], ptr %137, i64 0, i64 3
  store i32 %135, ptr %138, align 4, !tbaa !10
  call void @llvm.lifetime.end.p0(i64 8, ptr %11) #22
  %139 = load ptr, ptr %5, align 8, !tbaa !18
  %140 = getelementptr inbounds nuw %struct.XXH32_state_s, ptr %139, i32 0, i32 4
  %141 = load i32, ptr %140, align 4, !tbaa !23
  %142 = sub i32 16, %141
  %143 = load ptr, ptr %8, align 8, !tbaa !12
  %144 = zext i32 %142 to i64
  %145 = getelementptr inbounds nuw i8, ptr %143, i64 %144
  store ptr %145, ptr %8, align 8, !tbaa !12
  %146 = load ptr, ptr %5, align 8, !tbaa !18
  %147 = getelementptr inbounds nuw %struct.XXH32_state_s, ptr %146, i32 0, i32 4
  store i32 0, ptr %147, align 4, !tbaa !23
  br label %148

148:                                              ; preds = %74, %69
  %149 = load ptr, ptr %8, align 8, !tbaa !12
  %150 = load ptr, ptr %9, align 8, !tbaa !12
  %151 = getelementptr inbounds i8, ptr %150, i64 -16
  %152 = icmp ule ptr %149, %151
  br i1 %152, label %153, label %210

153:                                              ; preds = %148
  call void @llvm.lifetime.start.p0(i64 8, ptr %12) #22
  %154 = load ptr, ptr %9, align 8, !tbaa !12
  %155 = getelementptr inbounds i8, ptr %154, i64 -16
  store ptr %155, ptr %12, align 8, !tbaa !12
  br label %156

156:                                              ; preds = %205, %153
  %157 = load ptr, ptr %5, align 8, !tbaa !18
  %158 = getelementptr inbounds nuw %struct.XXH32_state_s, ptr %157, i32 0, i32 2
  %159 = getelementptr inbounds [4 x i32], ptr %158, i64 0, i64 0
  %160 = load i32, ptr %159, align 4, !tbaa !10
  %161 = load ptr, ptr %8, align 8, !tbaa !12
  %162 = call noundef i32 @_ZL12XXH_readLE32PKv(ptr noundef %161)
  %163 = call noundef i32 @_ZL11XXH32_roundjj(i32 noundef %160, i32 noundef %162)
  %164 = load ptr, ptr %5, align 8, !tbaa !18
  %165 = getelementptr inbounds nuw %struct.XXH32_state_s, ptr %164, i32 0, i32 2
  %166 = getelementptr inbounds [4 x i32], ptr %165, i64 0, i64 0
  store i32 %163, ptr %166, align 4, !tbaa !10
  %167 = load ptr, ptr %8, align 8, !tbaa !12
  %168 = getelementptr inbounds i8, ptr %167, i64 4
  store ptr %168, ptr %8, align 8, !tbaa !12
  %169 = load ptr, ptr %5, align 8, !tbaa !18
  %170 = getelementptr inbounds nuw %struct.XXH32_state_s, ptr %169, i32 0, i32 2
  %171 = getelementptr inbounds [4 x i32], ptr %170, i64 0, i64 1
  %172 = load i32, ptr %171, align 4, !tbaa !10
  %173 = load ptr, ptr %8, align 8, !tbaa !12
  %174 = call noundef i32 @_ZL12XXH_readLE32PKv(ptr noundef %173)
  %175 = call noundef i32 @_ZL11XXH32_roundjj(i32 noundef %172, i32 noundef %174)
  %176 = load ptr, ptr %5, align 8, !tbaa !18
  %177 = getelementptr inbounds nuw %struct.XXH32_state_s, ptr %176, i32 0, i32 2
  %178 = getelementptr inbounds [4 x i32], ptr %177, i64 0, i64 1
  store i32 %175, ptr %178, align 4, !tbaa !10
  %179 = load ptr, ptr %8, align 8, !tbaa !12
  %180 = getelementptr inbounds i8, ptr %179, i64 4
  store ptr %180, ptr %8, align 8, !tbaa !12
  %181 = load ptr, ptr %5, align 8, !tbaa !18
  %182 = getelementptr inbounds nuw %struct.XXH32_state_s, ptr %181, i32 0, i32 2
  %183 = getelementptr inbounds [4 x i32], ptr %182, i64 0, i64 2
  %184 = load i32, ptr %183, align 4, !tbaa !10
  %185 = load ptr, ptr %8, align 8, !tbaa !12
  %186 = call noundef i32 @_ZL12XXH_readLE32PKv(ptr noundef %185)
  %187 = call noundef i32 @_ZL11XXH32_roundjj(i32 noundef %184, i32 noundef %186)
  %188 = load ptr, ptr %5, align 8, !tbaa !18
  %189 = getelementptr inbounds nuw %struct.XXH32_state_s, ptr %188, i32 0, i32 2
  %190 = getelementptr inbounds [4 x i32], ptr %189, i64 0, i64 2
  store i32 %187, ptr %190, align 4, !tbaa !10
  %191 = load ptr, ptr %8, align 8, !tbaa !12
  %192 = getelementptr inbounds i8, ptr %191, i64 4
  store ptr %192, ptr %8, align 8, !tbaa !12
  %193 = load ptr, ptr %5, align 8, !tbaa !18
  %194 = getelementptr inbounds nuw %struct.XXH32_state_s, ptr %193, i32 0, i32 2
  %195 = getelementptr inbounds [4 x i32], ptr %194, i64 0, i64 3
  %196 = load i32, ptr %195, align 4, !tbaa !10
  %197 = load ptr, ptr %8, align 8, !tbaa !12
  %198 = call noundef i32 @_ZL12XXH_readLE32PKv(ptr noundef %197)
  %199 = call noundef i32 @_ZL11XXH32_roundjj(i32 noundef %196, i32 noundef %198)
  %200 = load ptr, ptr %5, align 8, !tbaa !18
  %201 = getelementptr inbounds nuw %struct.XXH32_state_s, ptr %200, i32 0, i32 2
  %202 = getelementptr inbounds [4 x i32], ptr %201, i64 0, i64 3
  store i32 %199, ptr %202, align 4, !tbaa !10
  %203 = load ptr, ptr %8, align 8, !tbaa !12
  %204 = getelementptr inbounds i8, ptr %203, i64 4
  store ptr %204, ptr %8, align 8, !tbaa !12
  br label %205

205:                                              ; preds = %156
  %206 = load ptr, ptr %8, align 8, !tbaa !12
  %207 = load ptr, ptr %12, align 8, !tbaa !12
  %208 = icmp ule ptr %206, %207
  br i1 %208, label %156, label %209, !llvm.loop !26

209:                                              ; preds = %205
  call void @llvm.lifetime.end.p0(i64 8, ptr %12) #22
  br label %210

210:                                              ; preds = %209, %148
  %211 = load ptr, ptr %8, align 8, !tbaa !12
  %212 = load ptr, ptr %9, align 8, !tbaa !12
  %213 = icmp ult ptr %211, %212
  br i1 %213, label %214, label %233

214:                                              ; preds = %210
  %215 = load ptr, ptr %5, align 8, !tbaa !18
  %216 = getelementptr inbounds nuw %struct.XXH32_state_s, ptr %215, i32 0, i32 3
  %217 = getelementptr inbounds [4 x i32], ptr %216, i64 0, i64 0
  %218 = load ptr, ptr %8, align 8, !tbaa !12
  %219 = load ptr, ptr %9, align 8, !tbaa !12
  %220 = load ptr, ptr %8, align 8, !tbaa !12
  %221 = ptrtoint ptr %219 to i64
  %222 = ptrtoint ptr %220 to i64
  %223 = sub i64 %221, %222
  %224 = call noundef ptr @_ZL10XXH_memcpyPvPKvm(ptr noundef %217, ptr noundef %218, i64 noundef %223)
  %225 = load ptr, ptr %9, align 8, !tbaa !12
  %226 = load ptr, ptr %8, align 8, !tbaa !12
  %227 = ptrtoint ptr %225 to i64
  %228 = ptrtoint ptr %226 to i64
  %229 = sub i64 %227, %228
  %230 = trunc i64 %229 to i32
  %231 = load ptr, ptr %5, align 8, !tbaa !18
  %232 = getelementptr inbounds nuw %struct.XXH32_state_s, ptr %231, i32 0, i32 4
  store i32 %230, ptr %232, align 4, !tbaa !23
  br label %233

233:                                              ; preds = %214, %210
  store i32 0, ptr %10, align 4
  br label %234

234:                                              ; preds = %233, %51
  call void @llvm.lifetime.end.p0(i64 8, ptr %9) #22
  call void @llvm.lifetime.end.p0(i64 8, ptr %8) #22
  %235 = load i32, ptr %10, align 4
  switch i32 %235, label %239 [
    i32 0, label %236
    i32 1, label %237
  ]

236:                                              ; preds = %234
  store i32 0, ptr %4, align 4
  br label %237

237:                                              ; preds = %236, %234, %19
  %238 = load i32, ptr %4, align 4
  ret i32 %238

239:                                              ; preds = %234
  unreachable
}