; Function Attrs: mustprogress uwtable
define noundef i32 @ROCKSDB_XXH32_update(ptr noundef captures(none) %0, ptr noundef %1, i64 noundef %2) local_unnamed_addr #7 {
  %4 = icmp eq ptr %1, null
  br i1 %4, label %5, label %7

5:                                                ; preds = %3
  %6 = icmp eq i64 %2, 0
  tail call void @llvm.assume(i1 %6)
  br label %112

7:                                                ; preds = %3
  %8 = getelementptr inbounds nuw i8, ptr %1, i64 %2
  %9 = trunc i64 %2 to i32
  %10 = load i32, ptr %0, align 4, !tbaa !14
  %11 = add i32 %10, %9
  store i32 %11, ptr %0, align 4, !tbaa !14
  %12 = icmp ugt i64 %2, 15
  %13 = icmp ugt i32 %11, 15
  %14 = or i1 %12, %13
  %15 = zext i1 %14 to i32
  %16 = getelementptr inbounds nuw i8, ptr %0, i64 4
  %17 = load i32, ptr %16, align 4, !tbaa !16
  %18 = or i32 %17, %15
  store i32 %18, ptr %16, align 4, !tbaa !16
  %19 = getelementptr inbounds nuw i8, ptr %0, i64 40
  %20 = load i32, ptr %19, align 4, !tbaa !17
  %21 = zext i32 %20 to i64
  %22 = add i64 %2, %21
  %23 = icmp ult i64 %22, 16
  br i1 %23, label %24, label %29

24:                                               ; preds = %7
  %25 = getelementptr inbounds nuw i8, ptr %0, i64 24
  %26 = getelementptr inbounds nuw i8, ptr %25, i64 %21
  tail call void @llvm.memcpy.p0.p0.i64(ptr nonnull align 1 %26, ptr nonnull readonly align 1 %1, i64 %2, i1 false)
  %27 = load i32, ptr %19, align 4, !tbaa !17
  %28 = add i32 %27, %9
  store i32 %28, ptr %19, align 4, !tbaa !17
  br label %112

29:                                               ; preds = %7
  %.not = icmp eq i32 %20, 0
  br i1 %.not, label %70, label %30

30:                                               ; preds = %29
  %31 = getelementptr inbounds nuw i8, ptr %0, i64 24
  %32 = getelementptr inbounds nuw i8, ptr %31, i64 %21
  %33 = sub i32 16, %20
  %34 = zext i32 %33 to i64
  tail call void @llvm.memcpy.p0.p0.i64(ptr nonnull align 1 %32, ptr nonnull readonly align 1 %1, i64 %34, i1 false)
  %35 = getelementptr inbounds nuw i8, ptr %0, i64 8
  %36 = load i32, ptr %35, align 4, !tbaa !4
  %.val87 = load i32, ptr %31, align 1, !tbaa !4
  %37 = mul i32 %.val87, -2048144777
  %38 = add i32 %37, %36
  %39 = tail call i32 @llvm.fshl.i32(i32 %38, i32 %38, i32 13)
  %40 = mul i32 %39, -1640531535
  %41 = tail call noundef i32 asm sideeffect "", "=r,0,~{dirflag},~{fpsr},~{flags}"(i32 %40) #34, !srcloc !8
  store i32 %41, ptr %35, align 4, !tbaa !4
  %42 = getelementptr inbounds nuw i8, ptr %0, i64 28
  %43 = getelementptr inbounds nuw i8, ptr %0, i64 12
  %44 = load i32, ptr %43, align 4, !tbaa !4
  %.val86 = load i32, ptr %42, align 1, !tbaa !4
  %45 = mul i32 %.val86, -2048144777
  %46 = add i32 %45, %44
  %47 = tail call i32 @llvm.fshl.i32(i32 %46, i32 %46, i32 13)
  %48 = mul i32 %47, -1640531535
  %49 = tail call noundef i32 asm sideeffect "", "=r,0,~{dirflag},~{fpsr},~{flags}"(i32 %48) #34, !srcloc !8
  store i32 %49, ptr %43, align 4, !tbaa !4
  %50 = getelementptr inbounds nuw i8, ptr %0, i64 32
  %51 = getelementptr inbounds nuw i8, ptr %0, i64 16
  %52 = load i32, ptr %51, align 4, !tbaa !4
  %.val85 = load i32, ptr %50, align 1, !tbaa !4
  %53 = mul i32 %.val85, -2048144777
  %54 = add i32 %53, %52
  %55 = tail call i32 @llvm.fshl.i32(i32 %54, i32 %54, i32 13)
  %56 = mul i32 %55, -1640531535
  %57 = tail call noundef i32 asm sideeffect "", "=r,0,~{dirflag},~{fpsr},~{flags}"(i32 %56) #34, !srcloc !8
  store i32 %57, ptr %51, align 4, !tbaa !4
  %58 = getelementptr inbounds nuw i8, ptr %0, i64 36
  %59 = getelementptr inbounds nuw i8, ptr %0, i64 20
  %60 = load i32, ptr %59, align 4, !tbaa !4
  %.val84 = load i32, ptr %58, align 1, !tbaa !4
  %61 = mul i32 %.val84, -2048144777
  %62 = add i32 %61, %60
  %63 = tail call i32 @llvm.fshl.i32(i32 %62, i32 %62, i32 13)
  %64 = mul i32 %63, -1640531535
  %65 = tail call noundef i32 asm sideeffect "", "=r,0,~{dirflag},~{fpsr},~{flags}"(i32 %64) #34, !srcloc !8
  store i32 %65, ptr %59, align 4, !tbaa !4
  %66 = load i32, ptr %19, align 4, !tbaa !17
  %67 = sub i32 16, %66
  %68 = zext i32 %67 to i64
  %69 = getelementptr inbounds nuw i8, ptr %1, i64 %68
  store i32 0, ptr %19, align 4, !tbaa !17
  br label %70

70:                                               ; preds = %30, %29
  %.073 = phi ptr [ %69, %30 ], [ %1, %29 ]
  %71 = getelementptr inbounds i8, ptr %8, i64 -16
  %.not80 = icmp ugt ptr %.073, %71
  br i1 %.not80, label %.loopexit, label %.preheader

.preheader:                                       ; preds = %70
  %72 = getelementptr inbounds nuw i8, ptr %0, i64 8
  %73 = getelementptr inbounds nuw i8, ptr %0, i64 12
  %74 = getelementptr inbounds nuw i8, ptr %0, i64 16
  %75 = getelementptr inbounds nuw i8, ptr %0, i64 20
  br label %76

76:                                               ; preds = %.preheader, %76
  %.2 = phi ptr [ %104, %76 ], [ %.073, %.preheader ]
  %77 = load i32, ptr %72, align 4, !tbaa !4
  %.2.val = load i32, ptr %.2, align 1, !tbaa !4
  %78 = mul i32 %.2.val, -2048144777
  %79 = add i32 %78, %77
  %80 = tail call i32 @llvm.fshl.i32(i32 %79, i32 %79, i32 13)
  %81 = mul i32 %80, -1640531535
  %82 = tail call noundef i32 asm sideeffect "", "=r,0,~{dirflag},~{fpsr},~{flags}"(i32 %81) #34, !srcloc !8
  store i32 %82, ptr %72, align 4, !tbaa !4
  %83 = getelementptr inbounds nuw i8, ptr %.2, i64 4
  %84 = load i32, ptr %73, align 4, !tbaa !4
  %.val83 = load i32, ptr %83, align 1, !tbaa !4
  %85 = mul i32 %.val83, -2048144777
  %86 = add i32 %85, %84
  %87 = tail call i32 @llvm.fshl.i32(i32 %86, i32 %86, i32 13)
  %88 = mul i32 %87, -1640531535
  %89 = tail call noundef i32 asm sideeffect "", "=r,0,~{dirflag},~{fpsr},~{flags}"(i32 %88) #34, !srcloc !8
  store i32 %89, ptr %73, align 4, !tbaa !4
  %90 = getelementptr inbounds nuw i8, ptr %.2, i64 8
  %91 = load i32, ptr %74, align 4, !tbaa !4
  %.val82 = load i32, ptr %90, align 1, !tbaa !4
  %92 = mul i32 %.val82, -2048144777
  %93 = add i32 %92, %91
  %94 = tail call i32 @llvm.fshl.i32(i32 %93, i32 %93, i32 13)
  %95 = mul i32 %94, -1640531535
  %96 = tail call noundef i32 asm sideeffect "", "=r,0,~{dirflag},~{fpsr},~{flags}"(i32 %95) #34, !srcloc !8
  store i32 %96, ptr %74, align 4, !tbaa !4
  %97 = getelementptr inbounds nuw i8, ptr %.2, i64 12
  %98 = load i32, ptr %75, align 4, !tbaa !4
  %.val = load i32, ptr %97, align 1, !tbaa !4
  %99 = mul i32 %.val, -2048144777
  %100 = add i32 %99, %98
  %101 = tail call i32 @llvm.fshl.i32(i32 %100, i32 %100, i32 13)
  %102 = mul i32 %101, -1640531535
  %103 = tail call noundef i32 asm sideeffect "", "=r,0,~{dirflag},~{fpsr},~{flags}"(i32 %102) #34, !srcloc !8
  store i32 %103, ptr %75, align 4, !tbaa !4
  %104 = getelementptr inbounds nuw i8, ptr %.2, i64 16
  %.not81 = icmp ugt ptr %104, %71
  br i1 %.not81, label %.loopexit, label %76, !llvm.loop !18

.loopexit:                                        ; preds = %76, %70
  %.174 = phi ptr [ %.073, %70 ], [ %104, %76 ]
  %105 = icmp ult ptr %.174, %8
  br i1 %105, label %106, label %112

106:                                              ; preds = %.loopexit
  %107 = getelementptr inbounds nuw i8, ptr %0, i64 24
  %108 = ptrtoint ptr %8 to i64
  %109 = ptrtoint ptr %.174 to i64
  %110 = sub i64 %108, %109
  tail call void @llvm.memcpy.p0.p0.i64(ptr nonnull align 1 %107, ptr nonnull readonly align 1 %.174, i64 %110, i1 false)
  %111 = trunc i64 %110 to i32
  store i32 %111, ptr %19, align 4, !tbaa !17
  br label %112

112:                                              ; preds = %24, %106, %.loopexit, %5
  ret i32 0
}